; Function Attrs: mustprogress null_pointer_is_valid sspstrong uwtable
define noundef ptr @_ZN10TrafficTab14modelForWidgetEP7QWidget(ptr noundef readnone align 8 captures(none) dereferenceable_or_null(130) %0, ptr noundef %1) local_unnamed_addr #3 align 2 {
  %3 = tail call noundef ptr @_ZNK11QMetaObject4castEPK7QObject(ptr noundef nonnull align 8 dereferenceable_or_null(56) @_ZN9QTreeView16staticMetaObjectE, ptr noundef %1)
  %.not = icmp eq ptr %3, null
  br i1 %.not, label %.thread, label %4

4:                                                ; preds = %2
  %5 = tail call noundef ptr @_ZNK11QMetaObject4castEPK7QObject(ptr noundef nonnull align 8 dereferenceable_or_null(56) @_ZN9QTreeView16staticMetaObjectE, ptr noundef %1)
  %6 = tail call noundef ptr @_ZNK17QAbstractItemView5modelEv(ptr noundef align 8 dereferenceable_or_null(40) %5)
  %7 = tail call noundef ptr @_ZNK11QMetaObject4castEPK7QObject(ptr noundef nonnull align 8 dereferenceable_or_null(56) @_ZN22TrafficDataFilterProxy16staticMetaObjectE, ptr noundef %6)
  %.not6.not = icmp eq ptr %7, null
  br i1 %.not6.not, label %.thread, label %8

8:                                                ; preds = %4
  %9 = tail call noundef ptr @_ZNK17QAbstractItemView5modelEv(ptr noundef align 8 dereferenceable_or_null(40) %5)
  %10 = tail call noundef ptr @_ZNK11QMetaObject4castEPK7QObject(ptr noundef nonnull align 8 dereferenceable_or_null(56) @_ZN22TrafficDataFilterProxy16staticMetaObjectE, ptr noundef %9)
  br label %.thread

.thread:                                          ; preds = %4, %2, %8
  %.1 = phi ptr [ %10, %8 ], [ null, %2 ], [ null, %4 ]
  ret ptr %.1
}